; Function Attrs: mustprogress nounwind uwtable
define internal noundef zeroext i1 @_ZNK12_GLOBAL__N_122AArch64MCInstrAnalysis14evaluateBranchERKN4llvm6MCInstEmmRm(ptr noundef nonnull readonly align 8 captures(none) dereferenceable(16) %0, ptr noundef nonnull align 8 dereferenceable(128) %1, i64 noundef %2, i64 %3, ptr noundef nonnull writeonly align 8 captures(none) dereferenceable(8) %4) unnamed_addr #2 align 2 {
  %6 = getelementptr inbounds nuw i8, ptr %0, i64 8
  %7 = load ptr, ptr %6, align 8
  %8 = load i32, ptr %1, align 8
  %9 = load ptr, ptr %7, align 8
  %10 = getelementptr inbounds nuw i8, ptr %1, i64 16
  %11 = tail call noundef i64 @_ZNK4llvm15SmallVectorBaseIjE4sizeEv(ptr noundef nonnull align 8 dereferenceable(16) %10) #18
  %12 = trunc i64 %11 to i32
  %.not24.not = icmp eq i32 %12, 0
  br i1 %.not24.not, label %.loopexit, label %.lr.ph

.lr.ph:                                           ; preds = %5
  %13 = zext i32 %8 to i64
  %14 = sub nsw i64 0, %13
  %15 = getelementptr inbounds %"class.llvm::MCInstrDesc", ptr %9, i64 %14
  %invariant.gep = getelementptr inbounds nuw i8, ptr %15, i64 32
  %16 = load i16, ptr %15, align 8
  %17 = zext i16 %16 to i64
  %gep = getelementptr inbounds nuw %"class.llvm::MCInstrDesc", ptr %invariant.gep, i64 %17
  %18 = getelementptr inbounds nuw i8, ptr %15, i64 12
  %19 = load i16, ptr %18, align 4
  %20 = zext i16 %19 to i64
  %21 = getelementptr inbounds nuw %"class.llvm::MCOperandInfo", ptr %gep, i64 %20
  br label %24

22:                                               ; preds = %24
  %23 = add nuw i32 %.02125, 1
  %.not.not = icmp eq i32 %23, %12
  br i1 %.not.not, label %.loopexit, label %24, !llvm.loop !23

24:                                               ; preds = %.lr.ph, %22
  %.02125 = phi i32 [ 0, %.lr.ph ], [ %23, %22 ]
  %25 = zext i32 %.02125 to i64
  %26 = getelementptr inbounds nuw %"class.llvm::MCOperandInfo", ptr %21, i64 %25, i32 2
  %27 = load i8, ptr %26, align 1
  %28 = icmp eq i8 %27, 4
  br i1 %28, label %29, label %22

29:                                               ; preds = %24
  %30 = load ptr, ptr %10, align 8
  %31 = getelementptr inbounds nuw %"class.llvm::MCOperand", ptr %30, i64 %25, i32 1
  %32 = load i64, ptr %31, align 8
  %33 = load i32, ptr %1, align 8
  switch i32 %33, label %40 [
    i32 1511, label %34
    i32 1512, label %36
  ]

34:                                               ; preds = %29
  %35 = add i64 %32, %2
  br label %.loopexit.sink.split

36:                                               ; preds = %29
  %37 = and i64 %2, -4096
  %38 = shl nsw i64 %32, 12
  %39 = add i64 %38, %37
  br label %.loopexit.sink.split

40:                                               ; preds = %29
  %41 = shl nsw i64 %32, 2
  %42 = add i64 %41, %2
  br label %.loopexit.sink.split

.loopexit.sink.split:                             ; preds = %36, %40, %34
  %.sink = phi i64 [ %35, %34 ], [ %42, %40 ], [ %39, %36 ]
  store i64 %.sink, ptr %4, align 8
  br label %.loopexit

.loopexit:                                        ; preds = %22, %.loopexit.sink.split, %5
  %.not23 = phi i1 [ false, %5 ], [ true, %.loopexit.sink.split ], [ false, %22 ]
  ret i1 %.not23
}